; Function Attrs: mustprogress uwtable
define noundef ptr @_ZN7rocksdb9DBOptions19IncreaseParallelismEi(ptr noundef nonnull returned align 8 dereferenceable(688) %this, i32 noundef %total_threads) local_unnamed_addr #0 align 2 {
entry:
  %max_background_jobs = getelementptr inbounds i8, ptr %this, i64 208
  store i32 %total_threads, ptr %max_background_jobs, align 8
  %env = getelementptr inbounds i8, ptr %this, i64 8
  %0 = load ptr, ptr %env, align 8
  %vtable = load ptr, ptr %0, align 8
  %vfn = getelementptr inbounds i8, ptr %vtable, i64 504
  %1 = load ptr, ptr %vfn, align 8
  tail call void %1(ptr noundef nonnull align 8 dereferenceable(72) %0, i32 noundef %total_threads, i32 noundef 1)
  %2 = load ptr, ptr %env, align 8
  %vtable3 = load ptr, ptr %2, align 8
  %vfn4 = getelementptr inbounds i8, ptr %vtable3, i64 504
  %3 = load ptr, ptr %vfn4, align 8
  tail call void %3(ptr noundef nonnull align 8 dereferenceable(72) %2, i32 noundef 1, i32 noundef 2)
  ret ptr %this
}